; Function Attrs: mustprogress nofree norecurse nosync nounwind willreturn memory(write, argmem: readwrite, inaccessiblemem: none) uwtable
define internal fastcc void @stbtt__csctx_close_shape(ptr noundef nonnull captures(none) %0) unnamed_addr #36 {
  %2 = getelementptr inbounds nuw i8, ptr %0, i64 8
  %3 = load float, ptr %2, align 8
  %4 = getelementptr inbounds nuw i8, ptr %0, i64 16
  %5 = load float, ptr %4, align 8
  %6 = fcmp une float %3, %5
  %.phi.trans.insert = getelementptr inbounds nuw i8, ptr %0, i64 12
  %.pre = load float, ptr %.phi.trans.insert, align 4
  br i1 %6, label %._crit_edge, label %7

7:                                                ; preds = %1
  %8 = getelementptr inbounds nuw i8, ptr %0, i64 20
  %9 = load float, ptr %8, align 4
  %10 = fcmp une float %.pre, %9
  br i1 %10, label %._crit_edge, label %71

._crit_edge:                                      ; preds = %1, %7
  %11 = fptosi float %3 to i32
  %12 = fptosi float %.pre to i32
  %13 = load i32, ptr %0, align 8
  %.not.i = icmp eq i32 %13, 0
  br i1 %.not.i, label %47, label %14

14:                                               ; preds = %._crit_edge
  %15 = getelementptr inbounds nuw i8, ptr %0, i64 28
  %16 = load i32, ptr %15, align 4
  %17 = icmp slt i32 %16, %11
  br i1 %17, label %21, label %18

18:                                               ; preds = %14
  %19 = getelementptr inbounds nuw i8, ptr %0, i64 4
  %20 = load i32, ptr %19, align 4
  %.not.i.i = icmp eq i32 %20, 0
  br i1 %.not.i.i, label %21, label %22

21:                                               ; preds = %18, %14
  store i32 %11, ptr %15, align 4
  br label %22

22:                                               ; preds = %21, %18
  %23 = getelementptr inbounds nuw i8, ptr %0, i64 36
  %24 = load i32, ptr %23, align 4
  %25 = icmp slt i32 %24, %12
  br i1 %25, label %29, label %26

26:                                               ; preds = %22
  %27 = getelementptr inbounds nuw i8, ptr %0, i64 4
  %28 = load i32, ptr %27, align 4
  %.not20.i.i = icmp eq i32 %28, 0
  br i1 %.not20.i.i, label %29, label %30

29:                                               ; preds = %26, %22
  store i32 %12, ptr %23, align 4
  br label %30

30:                                               ; preds = %29, %26
  %31 = getelementptr inbounds nuw i8, ptr %0, i64 24
  %32 = load i32, ptr %31, align 8
  %33 = icmp sgt i32 %32, %11
  br i1 %33, label %37, label %34

34:                                               ; preds = %30
  %35 = getelementptr inbounds nuw i8, ptr %0, i64 4
  %36 = load i32, ptr %35, align 4
  %.not21.i.i = icmp eq i32 %36, 0
  br i1 %.not21.i.i, label %37, label %38

37:                                               ; preds = %34, %30
  store i32 %11, ptr %31, align 8
  br label %38

38:                                               ; preds = %37, %34
  %39 = getelementptr inbounds nuw i8, ptr %0, i64 32
  %40 = load i32, ptr %39, align 8
  %41 = icmp sgt i32 %40, %12
  br i1 %41, label %45, label %42

42:                                               ; preds = %38
  %43 = getelementptr inbounds nuw i8, ptr %0, i64 4
  %44 = load i32, ptr %43, align 4
  %.not22.i.i = icmp eq i32 %44, 0
  br i1 %.not22.i.i, label %45, label %stbtt__track_vertex.exit.i

45:                                               ; preds = %42, %38
  store i32 %12, ptr %39, align 8
  br label %stbtt__track_vertex.exit.i

stbtt__track_vertex.exit.i:                       ; preds = %45, %42
  %46 = getelementptr inbounds nuw i8, ptr %0, i64 4
  store i32 1, ptr %46, align 4
  br label %stbtt__csctx_v.exit

47:                                               ; preds = %._crit_edge
  %48 = getelementptr inbounds nuw i8, ptr %0, i64 40
  %49 = load ptr, ptr %48, align 8
  %50 = getelementptr inbounds nuw i8, ptr %0, i64 48
  %51 = load i32, ptr %50, align 8
  %52 = sext i32 %51 to i64
  %53 = getelementptr inbounds %struct.stbtt_vertex, ptr %49, i64 %52
  %54 = getelementptr inbounds nuw i8, ptr %53, i64 12
  store i8 2, ptr %54, align 2
  %55 = trunc i32 %11 to i16
  store i16 %55, ptr %53, align 2
  %56 = trunc i32 %12 to i16
  %57 = getelementptr inbounds nuw i8, ptr %53, i64 2
  store i16 %56, ptr %57, align 2
  %58 = getelementptr inbounds nuw i8, ptr %53, i64 4
  store i16 0, ptr %58, align 2
  %59 = getelementptr inbounds nuw i8, ptr %53, i64 6
  store i16 0, ptr %59, align 2
  %60 = load ptr, ptr %48, align 8
  %61 = load i32, ptr %50, align 8
  %62 = sext i32 %61 to i64
  %63 = getelementptr inbounds %struct.stbtt_vertex, ptr %60, i64 %62, i32 4
  store i16 0, ptr %63, align 2
  %64 = load ptr, ptr %48, align 8
  %65 = load i32, ptr %50, align 8
  %66 = sext i32 %65 to i64
  %67 = getelementptr inbounds %struct.stbtt_vertex, ptr %64, i64 %66, i32 5
  store i16 0, ptr %67, align 2
  br label %stbtt__csctx_v.exit

stbtt__csctx_v.exit:                              ; preds = %stbtt__track_vertex.exit.i, %47
  %68 = getelementptr inbounds nuw i8, ptr %0, i64 48
  %69 = load i32, ptr %68, align 8
  %70 = add nsw i32 %69, 1
  store i32 %70, ptr %68, align 8
  br label %71

71:                                               ; preds = %stbtt__csctx_v.exit, %7
  ret void
}